target datalayout = "e-m:e-p270:32:32-p271:32:32-p272:64:64-i64:64-i128:128-f80:128-n8:16:32:64-S128"
target triple = "x86_64-pc-linux-gnu"

%struct.segmentation = type { i8, i8, i8, i8, [8 x [8 x i16]], [8 x i32], i32, i8 }

; Function Attrs: nounwind uwtable
define internal i32 @clamp(i32 noundef %0, i32 noundef %1, i32 noundef %2) #0 {
  %4 = alloca i32, align 4
  %5 = alloca i32, align 4
  %6 = alloca i32, align 4
  store i32 %0, ptr %4, align 4
  store i32 %1, ptr %5, align 4
  store i32 %2, ptr %6, align 4
  %7 = load i32, ptr %4, align 4
  %8 = load i32, ptr %5, align 4
  %9 = icmp slt i32 %7, %8
  br i1 %9, label %10, label %12

10:                                               ; preds = %3
  %11 = load i32, ptr %5, align 4
  br label %22

12:                                               ; preds = %3
  %13 = load i32, ptr %4, align 4
  %14 = load i32, ptr %6, align 4
  %15 = icmp sgt i32 %13, %14
  br i1 %15, label %16, label %18

16:                                               ; preds = %12
  %17 = load i32, ptr %6, align 4
  br label %20

18:                                               ; preds = %12
  %19 = load i32, ptr %4, align 4
  br label %20

20:                                               ; preds = %18, %16
  %21 = phi i32 [ %17, %16 ], [ %19, %18 ]
  br label %22

22:                                               ; preds = %20, %10
  %23 = phi i32 [ %11, %10 ], [ %21, %20 ]
  ret i32 %23
}

; Function Attrs: nounwind uwtable
define internal i32 @get_segdata(ptr noundef %0, i32 noundef %1, i8 noundef zeroext %2) #0 {
  %4 = alloca ptr, align 8
  %5 = alloca i32, align 4
  %6 = alloca i8, align 1
  store ptr %0, ptr %4, align 8
  store i32 %1, ptr %5, align 4
  store i8 %2, ptr %6, align 1
  %7 = load ptr, ptr %4, align 8
  %8 = getelementptr inbounds nuw %struct.segmentation, ptr %7, i32 0, i32 4
  %9 = load i32, ptr %5, align 4
  %10 = sext i32 %9 to i64
  %11 = getelementptr inbounds [8 x [8 x i16]], ptr %8, i64 0, i64 %10
  %12 = load i8, ptr %6, align 1
  %13 = zext i8 %12 to i64
  %14 = getelementptr inbounds [8 x i16], ptr %11, i64 0, i64 %13
  %15 = load i16, ptr %14, align 2
  %16 = sext i16 %15 to i32
  ret i32 %16
}

; Function Attrs: nounwind uwtable
define internal i32 @segfeature_active(ptr noundef %0, i32 noundef %1, i8 noundef zeroext %2) #0 {
  %4 = alloca ptr, align 8
  %5 = alloca i32, align 4
  %6 = alloca i8, align 1
  store ptr %0, ptr %4, align 8
  store i32 %1, ptr %5, align 4
  store i8 %2, ptr %6, align 1
  %7 = load ptr, ptr %4, align 8
  %8 = getelementptr inbounds nuw %struct.segmentation, ptr %7, i32 0, i32 0
  %9 = load i8, ptr %8, align 4
  %10 = zext i8 %9 to i32
  %11 = icmp ne i32 %10, 0
  br i1 %11, label %12, label %24

12:                                               ; preds = %3
  %13 = load ptr, ptr %4, align 8
  %14 = getelementptr inbounds nuw %struct.segmentation, ptr %13, i32 0, i32 5
  %15 = load i32, ptr %5, align 4
  %16 = sext i32 %15 to i64
  %17 = getelementptr inbounds [8 x i32], ptr %14, i64 0, i64 %16
  %18 = load i32, ptr %17, align 4
  %19 = load i8, ptr %6, align 1
  %20 = zext i8 %19 to i32
  %21 = shl i32 1, %20
  %22 = and i32 %18, %21
  %23 = icmp ne i32 %22, 0
  br label %24

24:                                               ; preds = %12, %3
  %25 = phi i1 [ false, %3 ], [ %23, %12 ]
  %26 = zext i1 %25 to i32
  ret i32 %26
}

; Function Attrs: nounwind uwtable
define hidden i32 @av1_get_qindex(ptr noundef %0, i32 noundef %1, i32 noundef %2) #0 {
  %4 = alloca i32, align 4
  %5 = alloca ptr, align 8
  %6 = alloca i32, align 4
  %7 = alloca i32, align 4
  %8 = alloca i32, align 4
  %9 = alloca i32, align 4
  store ptr %0, ptr %5, align 8
  store i32 %1, ptr %6, align 4
  store i32 %2, ptr %7, align 4
  %10 = load ptr, ptr %5, align 8
  %11 = load i32, ptr %6, align 4
  %12 = call i32 @segfeature_active(ptr noundef %10, i32 noundef %11, i8 noundef zeroext 0)
  %13 = icmp ne i32 %12, 0
  br i1 %13, label %14, label %23

14:                                               ; preds = %3
  %15 = load ptr, ptr %5, align 8
  %16 = load i32, ptr %6, align 4
  %17 = call i32 @get_segdata(ptr noundef %15, i32 noundef %16, i8 noundef zeroext 0)
  store i32 %17, ptr %8, align 4
  %18 = load i32, ptr %7, align 4
  %19 = load i32, ptr %8, align 4
  %20 = add nsw i32 %18, %19
  store i32 %20, ptr %9, align 4
  %21 = load i32, ptr %9, align 4
  %22 = call i32 @clamp(i32 noundef %21, i32 noundef 0, i32 noundef 255)
  store i32 %22, ptr %4, align 4
  br label %25

23:                                               ; preds = %3
  %24 = load i32, ptr %7, align 4
  store i32 %24, ptr %4, align 4
  br label %25

25:                                               ; preds = %23, %14
  %26 = load i32, ptr %4, align 4
  ret i32 %26
}