; Function Attrs: mustprogress nofree norecurse nosync nounwind willreturn memory(argmem: read) uwtable
define hidden i32 @av1_get_qindex(ptr nocapture noundef readonly %0, i32 noundef %1, i32 noundef %2) local_unnamed_addr #1 {
  %4 = load i8, ptr %0, align 4
  %.not.i = icmp eq i8 %4, 0
  br i1 %.not.i, label %segfeature_active.exit.thread, label %segfeature_active.exit

segfeature_active.exit:                           ; preds = %3
  %5 = getelementptr inbounds nuw i8, ptr %0, i64 132
  %6 = sext i32 %1 to i64
  %7 = getelementptr inbounds [8 x i32], ptr %5, i64 0, i64 %6
  %8 = load i32, ptr %7, align 4
  %9 = and i32 %8, 1
  %.not = icmp eq i32 %9, 0
  br i1 %.not, label %segfeature_active.exit.thread, label %10

10:                                               ; preds = %segfeature_active.exit
  %11 = getelementptr inbounds nuw i8, ptr %0, i64 4
  %12 = getelementptr inbounds [8 x [8 x i16]], ptr %11, i64 0, i64 %6
  %13 = load i16, ptr %12, align 2
  %14 = sext i16 %13 to i32
  %15 = add nsw i32 %2, %14
  %16 = icmp slt i32 %15, 0
  %17 = tail call i32 @llvm.umin.i32(i32 %15, i32 255)
  %18 = select i1 %16, i32 0, i32 %17
  br label %segfeature_active.exit.thread

segfeature_active.exit.thread:                    ; preds = %3, %segfeature_active.exit, %10
  %.0 = phi i32 [ %18, %10 ], [ %2, %segfeature_active.exit ], [ %2, %3 ]
  ret i32 %.0
}